target datalayout = "e-m:e-p270:32:32-p271:32:32-p272:64:64-i64:64-i128:128-f80:128-n8:16:32:64-S128"
target triple = "x86_64-pc-linux-gnu"

%"class.std::__cxx11::basic_string" = type { %"struct.std::__cxx11::basic_string<char>::_Alloc_hider", i64, %union.anon }
%"struct.std::__cxx11::basic_string<char>::_Alloc_hider" = type { ptr }
%union.anon = type { i64, [8 x i8] }
%"class.i18n::phonenumbers::PhoneNumberMatcher" = type <{ ptr, ptr, ptr, %"class.std::__cxx11::basic_string", %"class.std::__cxx11::basic_string", i32, i32, i32, [4 x i8], %"class.boost::scoped_ptr", i32, i8, [3 x i8] }>
%"class.boost::scoped_ptr" = type { ptr }
%"class.i18n::phonenumbers::UnicodeText" = type { %"class.i18n::phonenumbers::UnicodeText::Repr" }
%"class.i18n::phonenumbers::UnicodeText::Repr" = type <{ ptr, i32, i32, i8, i8, [6 x i8] }>

; Function Attrs: mustprogress nounwind uwtable
define linkonce_odr dso_local noundef zeroext i1 @_ZNK4i18n12phonenumbers11UnicodeText12UTF8WasValidEv(ptr noundef nonnull align 8 dereferenceable(24) %0) #5 comdat align 2 {
  %2 = alloca ptr, align 8
  store ptr %0, ptr %2, align 8
  %3 = load ptr, ptr %2, align 8
  %4 = getelementptr inbounds %"class.i18n::phonenumbers::UnicodeText", ptr %3, i32 0, i32 0
  %5 = getelementptr inbounds %"class.i18n::phonenumbers::UnicodeText::Repr", ptr %4, i32 0, i32 4
  %6 = load i8, ptr %5, align 1
  %7 = trunc i8 %6 to i1
  ret i1 %7
}

; Function Attrs: mustprogress uwtable
define dso_local noundef zeroext i1 @_ZN4i18n12phonenumbers18PhoneNumberMatcher11IsInputUtf8Ev(ptr noundef nonnull align 8 dereferenceable(117) %0) #4 align 2 personality ptr @__gxx_personality_v0 {
  %2 = alloca ptr, align 8
  %3 = alloca %"class.i18n::phonenumbers::UnicodeText", align 8
  %4 = alloca ptr, align 8
  %5 = alloca i32, align 4
  store ptr %0, ptr %2, align 8
  %6 = load ptr, ptr %2, align 8
  call void @_ZN4i18n12phonenumbers11UnicodeTextC1Ev(ptr noundef nonnull align 8 dereferenceable(24) %3)
  %7 = getelementptr inbounds %"class.i18n::phonenumbers::PhoneNumberMatcher", ptr %6, i32 0, i32 3
  %8 = call noundef ptr @_ZNKSt7__cxx1112basic_stringIcSt11char_traitsIcESaIcEE5c_strEv(ptr noundef nonnull align 8 dereferenceable(32) %7) #3
  %9 = getelementptr inbounds %"class.i18n::phonenumbers::PhoneNumberMatcher", ptr %6, i32 0, i32 3
  %10 = call noundef i64 @_ZNKSt7__cxx1112basic_stringIcSt11char_traitsIcESaIcEE4sizeEv(ptr noundef nonnull align 8 dereferenceable(32) %9) #3
  %11 = trunc i64 %10 to i32
  %12 = invoke noundef nonnull align 8 dereferenceable(24) ptr @_ZN4i18n12phonenumbers11UnicodeText11PointToUTF8EPKci(ptr noundef nonnull align 8 dereferenceable(24) %3, ptr noundef %8, i32 noundef %11)
          to label %13 unwind label %16

13:                                               ; preds = %1
  %14 = invoke noundef zeroext i1 @_ZNK4i18n12phonenumbers11UnicodeText12UTF8WasValidEv(ptr noundef nonnull align 8 dereferenceable(24) %3)
          to label %15 unwind label %16

15:                                               ; preds = %13
  call void @_ZN4i18n12phonenumbers11UnicodeTextD1Ev(ptr noundef nonnull align 8 dereferenceable(24) %3) #3
  ret i1 %14

16:                                               ; preds = %13, %1
  %17 = landingpad { ptr, i32 }
          cleanup
  %18 = extractvalue { ptr, i32 } %17, 0
  store ptr %18, ptr %4, align 8
  %19 = extractvalue { ptr, i32 } %17, 1
  store i32 %19, ptr %5, align 4
  call void @_ZN4i18n12phonenumbers11UnicodeTextD1Ev(ptr noundef nonnull align 8 dereferenceable(24) %3) #3
  br label %20

20:                                               ; preds = %16
  %21 = load ptr, ptr %4, align 8
  %22 = load i32, ptr %5, align 4
  %23 = insertvalue { ptr, i32 } poison, ptr %21, 0
  %24 = insertvalue { ptr, i32 } %23, i32 %22, 1
  resume { ptr, i32 } %24
}

; Function Attrs: mustprogress nounwind uwtable
define linkonce_odr dso_local void @_ZN5boost10scoped_ptrIN4i18n12phonenumbers16PhoneNumberMatchEEC2EPS3_(ptr noundef nonnull align 8 dereferenceable(8) %0, ptr noundef %1) unnamed_addr #5 comdat align 2 {
  %3 = alloca ptr, align 8
  %4 = alloca ptr, align 8
  store ptr %0, ptr %3, align 8
  store ptr %1, ptr %4, align 8
  %5 = load ptr, ptr %3, align 8
  %6 = getelementptr inbounds %"class.boost::scoped_ptr", ptr %5, i32 0, i32 0
  %7 = load ptr, ptr %4, align 8
  store ptr %7, ptr %6, align 8
  ret void
}

; Function Attrs: mustprogress nounwind uwtable
define linkonce_odr dso_local noundef i32 @_ZNSt14numeric_limitsIiE3maxEv() #5 comdat align 2 {
  ret i32 2147483647
}

; Function Attrs: mustprogress uwtable
define dso_local void @_ZN4i18n12phonenumbers18PhoneNumberMatcherC2ERKNSt7__cxx1112basic_stringIcSt11char_traitsIcESaIcEEES9_(ptr noundef nonnull align 8 dereferenceable(117) %0, ptr noundef nonnull align 8 dereferenceable(32) %1, ptr noundef nonnull align 8 dereferenceable(32) %2) unnamed_addr #4 align 2 personality ptr @__gxx_personality_v0 {
  %4 = alloca ptr, align 8
  %5 = alloca ptr, align 8
  %6 = alloca ptr, align 8
  %7 = alloca ptr, align 8
  %8 = alloca i32, align 4
  store ptr %0, ptr %4, align 8
  store ptr %1, ptr %5, align 8
  store ptr %2, ptr %6, align 8
  %9 = load ptr, ptr %4, align 8
  %10 = getelementptr inbounds %"class.i18n::phonenumbers::PhoneNumberMatcher", ptr %9, i32 0, i32 0
  %11 = call noundef ptr @_ZN4i18n12phonenumbers9SingletonINS0_25PhoneNumberMatcherRegExpsEE11GetInstanceEv()
  store ptr %11, ptr %10, align 8
  %12 = getelementptr inbounds %"class.i18n::phonenumbers::PhoneNumberMatcher", ptr %9, i32 0, i32 1
  store ptr null, ptr %12, align 8
  %13 = getelementptr inbounds %"class.i18n::phonenumbers::PhoneNumberMatcher", ptr %9, i32 0, i32 2
  %14 = call noundef ptr @_ZN4i18n12phonenumbers15PhoneNumberUtil11GetInstanceEv()
  store ptr %14, ptr %13, align 8
  %15 = getelementptr inbounds %"class.i18n::phonenumbers::PhoneNumberMatcher", ptr %9, i32 0, i32 3
  %16 = load ptr, ptr %5, align 8
  call void @_ZNSt7__cxx1112basic_stringIcSt11char_traitsIcESaIcEEC1ERKS4_(ptr noundef nonnull align 8 dereferenceable(32) %15, ptr noundef nonnull align 8 dereferenceable(32) %16)
  %17 = getelementptr inbounds %"class.i18n::phonenumbers::PhoneNumberMatcher", ptr %9, i32 0, i32 4
  %18 = load ptr, ptr %6, align 8
  invoke void @_ZNSt7__cxx1112basic_stringIcSt11char_traitsIcESaIcEEC1ERKS4_(ptr noundef nonnull align 8 dereferenceable(32) %17, ptr noundef nonnull align 8 dereferenceable(32) %18)
          to label %19 unwind label %31

19:                                               ; preds = %3
  %20 = getelementptr inbounds %"class.i18n::phonenumbers::PhoneNumberMatcher", ptr %9, i32 0, i32 5
  store i32 1, ptr %20, align 8
  %21 = getelementptr inbounds %"class.i18n::phonenumbers::PhoneNumberMatcher", ptr %9, i32 0, i32 6
  %22 = call noundef i32 @_ZNSt14numeric_limitsIiE3maxEv() #3
  store i32 %22, ptr %21, align 4
  %23 = getelementptr inbounds %"class.i18n::phonenumbers::PhoneNumberMatcher", ptr %9, i32 0, i32 7
  store i32 0, ptr %23, align 8
  %24 = getelementptr inbounds %"class.i18n::phonenumbers::PhoneNumberMatcher", ptr %9, i32 0, i32 9
  call void @_ZN5boost10scoped_ptrIN4i18n12phonenumbers16PhoneNumberMatchEEC2EPS3_(ptr noundef nonnull align 8 dereferenceable(8) %24, ptr noundef null) #3
  %25 = getelementptr inbounds %"class.i18n::phonenumbers::PhoneNumberMatcher", ptr %9, i32 0, i32 10
  store i32 0, ptr %25, align 8
  %26 = getelementptr inbounds %"class.i18n::phonenumbers::PhoneNumberMatcher", ptr %9, i32 0, i32 11
  store i8 1, ptr %26, align 4
  %27 = invoke noundef zeroext i1 @_ZN4i18n12phonenumbers18PhoneNumberMatcher11IsInputUtf8Ev(ptr noundef nonnull align 8 dereferenceable(117) %9)
          to label %28 unwind label %35

28:                                               ; preds = %19
  %29 = getelementptr inbounds %"class.i18n::phonenumbers::PhoneNumberMatcher", ptr %9, i32 0, i32 11
  %30 = zext i1 %27 to i8
  store i8 %30, ptr %29, align 4
  ret void

31:                                               ; preds = %3
  %32 = landingpad { ptr, i32 }
          cleanup
  %33 = extractvalue { ptr, i32 } %32, 0
  store ptr %33, ptr %7, align 8
  %34 = extractvalue { ptr, i32 } %32, 1
  store i32 %34, ptr %8, align 4
  br label %39

35:                                               ; preds = %19
  %36 = landingpad { ptr, i32 }
          cleanup
  %37 = extractvalue { ptr, i32 } %36, 0
  store ptr %37, ptr %7, align 8
  %38 = extractvalue { ptr, i32 } %36, 1
  store i32 %38, ptr %8, align 4
  call void @_ZN5boost10scoped_ptrIN4i18n12phonenumbers16PhoneNumberMatchEED2Ev(ptr noundef nonnull align 8 dereferenceable(8) %24) #3
  call void @_ZNSt7__cxx1112basic_stringIcSt11char_traitsIcESaIcEED1Ev(ptr noundef nonnull align 8 dereferenceable(32) %17) #3
  br label %39

39:                                               ; preds = %35, %31
  call void @_ZNSt7__cxx1112basic_stringIcSt11char_traitsIcESaIcEED1Ev(ptr noundef nonnull align 8 dereferenceable(32) %15) #3
  br label %40

40:                                               ; preds = %39
  %41 = load ptr, ptr %7, align 8
  %42 = load i32, ptr %8, align 4
  %43 = insertvalue { ptr, i32 } poison, ptr %41, 0
  %44 = insertvalue { ptr, i32 } %43, i32 %42, 1
  resume { ptr, i32 } %44
}