; Function Attrs: mustprogress uwtable
define dso_local void @_ZN4i18n12phonenumbers18PhoneNumberMatcherC2ERKNSt7__cxx1112basic_stringIcSt11char_traitsIcESaIcEEES9_(ptr noundef nonnull align 8 dereferenceable(117) %0, ptr noundef nonnull align 8 dereferenceable(32) %1, ptr noundef nonnull align 8 dereferenceable(32) %2) unnamed_addr #4 align 2 personality ptr @__gxx_personality_v0 {
  %4 = alloca %"class.i18n::phonenumbers::UnicodeText", align 8
  %5 = tail call noundef ptr @_ZN4i18n12phonenumbers9SingletonINS0_25PhoneNumberMatcherRegExpsEE11GetInstanceEv()
  store ptr %5, ptr %0, align 8
  %6 = getelementptr inbounds i8, ptr %0, i64 8
  store ptr null, ptr %6, align 8
  %7 = getelementptr inbounds i8, ptr %0, i64 16
  %8 = tail call noundef ptr @_ZN4i18n12phonenumbers15PhoneNumberUtil11GetInstanceEv()
  store ptr %8, ptr %7, align 8
  %9 = getelementptr inbounds i8, ptr %0, i64 24
  tail call void @_ZNSt7__cxx1112basic_stringIcSt11char_traitsIcESaIcEEC1ERKS4_(ptr noundef nonnull align 8 dereferenceable(32) %9, ptr noundef nonnull align 8 dereferenceable(32) %1)
  %10 = getelementptr inbounds i8, ptr %0, i64 56
  invoke void @_ZNSt7__cxx1112basic_stringIcSt11char_traitsIcESaIcEEC1ERKS4_(ptr noundef nonnull align 8 dereferenceable(32) %10, ptr noundef nonnull align 8 dereferenceable(32) %2)
          to label %11 unwind label %28

11:                                               ; preds = %3
  %12 = getelementptr inbounds i8, ptr %0, i64 88
  store i32 1, ptr %12, align 8
  %13 = getelementptr inbounds i8, ptr %0, i64 92
  store i32 2147483647, ptr %13, align 4
  %14 = getelementptr inbounds i8, ptr %0, i64 96
  store i32 0, ptr %14, align 8
  %15 = getelementptr inbounds i8, ptr %0, i64 104
  store ptr null, ptr %15, align 8
  %16 = getelementptr inbounds i8, ptr %0, i64 112
  store i32 0, ptr %16, align 8
  %17 = getelementptr inbounds i8, ptr %0, i64 116
  store i8 1, ptr %17, align 4
  call void @llvm.lifetime.start.p0(i64 24, ptr nonnull %4)
  invoke void @_ZN4i18n12phonenumbers11UnicodeTextC1Ev(ptr noundef nonnull align 8 dereferenceable(24) %4)
          to label %.noexc unwind label %30

.noexc:                                           ; preds = %11
  %18 = call noundef ptr @_ZNKSt7__cxx1112basic_stringIcSt11char_traitsIcESaIcEE5c_strEv(ptr noundef nonnull align 8 dereferenceable(32) %9) #19
  %19 = call noundef i64 @_ZNKSt7__cxx1112basic_stringIcSt11char_traitsIcESaIcEE4sizeEv(ptr noundef nonnull align 8 dereferenceable(32) %9) #19
  %20 = trunc i64 %19 to i32
  %21 = invoke noundef nonnull align 8 dereferenceable(24) ptr @_ZN4i18n12phonenumbers11UnicodeText11PointToUTF8EPKci(ptr noundef nonnull align 8 dereferenceable(24) %4, ptr noundef %18, i32 noundef %20)
          to label %24 unwind label %22

22:                                               ; preds = %.noexc
  %23 = landingpad { ptr, i32 }
          cleanup
  call void @_ZN4i18n12phonenumbers11UnicodeTextD1Ev(ptr noundef nonnull align 8 dereferenceable(24) %4) #19
  br label %.body

24:                                               ; preds = %.noexc
  %25 = getelementptr inbounds i8, ptr %4, i64 17
  %26 = load i8, ptr %25, align 1
  %27 = and i8 %26, 1
  call void @_ZN4i18n12phonenumbers11UnicodeTextD1Ev(ptr noundef nonnull align 8 dereferenceable(24) %4) #19
  call void @llvm.lifetime.end.p0(i64 24, ptr nonnull %4)
  store i8 %27, ptr %17, align 4
  ret void

28:                                               ; preds = %3
  %29 = landingpad { ptr, i32 }
          cleanup
  br label %32

30:                                               ; preds = %11
  %31 = landingpad { ptr, i32 }
          cleanup
  br label %.body

.body:                                            ; preds = %22, %30
  %eh.lpad-body = phi { ptr, i32 } [ %31, %30 ], [ %23, %22 ]
  call void @_ZN5boost10scoped_ptrIN4i18n12phonenumbers16PhoneNumberMatchEED2Ev(ptr noundef nonnull align 8 dereferenceable(8) %15) #19
  call void @_ZNSt7__cxx1112basic_stringIcSt11char_traitsIcESaIcEED1Ev(ptr noundef nonnull align 8 dereferenceable(32) %10) #19
  br label %32

32:                                               ; preds = %.body, %28
  %.pn = phi { ptr, i32 } [ %eh.lpad-body, %.body ], [ %29, %28 ]
  call void @_ZNSt7__cxx1112basic_stringIcSt11char_traitsIcESaIcEED1Ev(ptr noundef nonnull align 8 dereferenceable(32) %9) #19
  resume { ptr, i32 } %.pn
}